; Function Attrs: null_pointer_is_valid sspstrong uwtable
define internal fastcc void @dissect_attr_master_indication(ptr noundef %0, ptr noundef %1, i32 noundef %2, i16 noundef zeroext %3, ptr noundef %4) unnamed_addr #0 {
  %.not = icmp eq i16 %3, 2
  br i1 %.not, label %8, label %6

6:                                                ; preds = %5
  %7 = tail call ptr @expert_add_info(ptr noundef %4, ptr noundef %0, ptr noundef nonnull @ei_nan_elem_len_invalid)
  br label %15

8:                                                ; preds = %5
  %9 = load i32, ptr @hf_nan_attr_master_preference, align 4
  %10 = add i32 %2, 3
  %11 = tail call ptr @proto_tree_add_item(ptr noundef %0, i32 noundef %9, ptr noundef %1, i32 noundef %10, i32 noundef 1, i32 noundef 0)
  %12 = load i32, ptr @hf_nan_attr_master_random_factor, align 4
  %13 = add i32 %2, 4
  %14 = tail call ptr @proto_tree_add_item(ptr noundef %0, i32 noundef %12, ptr noundef %1, i32 noundef %13, i32 noundef 1, i32 noundef 0)
  br label %15

15:                                               ; preds = %8, %6
  ret void
}